; Function Attrs: mustprogress uwtable
define dso_local noundef ptr @_ZNK4Luau7TypeIds5frontEv(ptr noundef nonnull readonly align 8 captures(none) dereferenceable(72) %0) local_unnamed_addr #4 align 2 {
  %2 = getelementptr inbounds nuw i8, ptr %0, i64 40
  %3 = getelementptr inbounds nuw i8, ptr %0, i64 48
  %4 = load ptr, ptr %3, align 8, !tbaa !36
  %5 = load ptr, ptr %2, align 8, !tbaa !21
  %.not.i.i.not = icmp eq ptr %4, %5
  br i1 %.not.i.i.not, label %6, label %_ZNKSt6vectorIPKN4Luau4TypeESaIS3_EE2atEm.exit

6:                                                ; preds = %1
  tail call void (ptr, ...) @_ZSt24__throw_out_of_range_fmtPKcz(ptr noundef nonnull @.str.72, i64 noundef 0, i64 noundef 0) #33
  unreachable

_ZNKSt6vectorIPKN4Luau4TypeESaIS3_EE2atEm.exit:   ; preds = %1
  %7 = load ptr, ptr %5, align 8, !tbaa !19
  ret ptr %7
}